ARM GAS  C:\Users\MATEUS~1\AppData\Local\Temp\ccpPluJn.s 			page 1


   1              		.syntax unified
   2              		.cpu cortex-m3
   3              		.fpu softvfp
   4              		.eabi_attribute 20, 1
   5              		.eabi_attribute 21, 1
   6              		.eabi_attribute 23, 3
   7              		.eabi_attribute 24, 1
   8              		.eabi_attribute 25, 1
   9              		.eabi_attribute 26, 1
  10              		.eabi_attribute 30, 6
  11              		.eabi_attribute 34, 1
  12              		.eabi_attribute 18, 4
  13              		.thumb
  14              		.syntax unified
  15              		.file	"encoder.c"
  16              		.text
  17              	.Ltext0:
  18              		.cfi_sections	.debug_frame
  19              		.section	.text.encoder_gpio_event,"ax",%progbits
  20              		.align	2
  21              		.global	encoder_gpio_event
  22              		.thumb
  23              		.thumb_func
  25              	encoder_gpio_event:
  26              	.LFB64:
  27              		.file 1 "Src/encoder.c"
   1:Src/encoder.c **** #include "encoder.h"
   2:Src/encoder.c **** 
   3:Src/encoder.c **** 
   4:Src/encoder.c **** 
   5:Src/encoder.c **** 
   6:Src/encoder.c **** void encoder_gpio_event(encoder_t *p_encoder, GPIO_TypeDef *port, uint32_t pin) {
  28              		.loc 1 6 0
  29              		.cfi_startproc
  30              		@ args = 0, pretend = 0, frame = 32
  31              		@ frame_needed = 1, uses_anonymous_args = 0
  32 0000 80B5     		push	{r7, lr}
  33              	.LCFI0:
  34              		.cfi_def_cfa_offset 8
  35              		.cfi_offset 7, -8
  36              		.cfi_offset 14, -4
  37 0002 88B0     		sub	sp, sp, #32
  38              	.LCFI1:
  39              		.cfi_def_cfa_offset 40
  40 0004 00AF     		add	r7, sp, #0
  41              	.LCFI2:
  42              		.cfi_def_cfa_register 7
  43 0006 F860     		str	r0, [r7, #12]
  44 0008 B960     		str	r1, [r7, #8]
  45 000a 7A60     		str	r2, [r7, #4]
   7:Src/encoder.c **** 	if(p_encoder->event_handler == NULL) return;
  46              		.loc 1 7 0
  47 000c FB68     		ldr	r3, [r7, #12]
  48 000e 9B69     		ldr	r3, [r3, #24]
  49 0010 002B     		cmp	r3, #0
  50 0012 54D0     		beq	.L8
   8:Src/encoder.c **** 
ARM GAS  C:\Users\MATEUS~1\AppData\Local\Temp\ccpPluJn.s 			page 2


   9:Src/encoder.c **** 	int state_a = HAL_GPIO_ReadPin(p_encoder->port_a, p_encoder->pin_a);
  51              		.loc 1 9 0
  52 0014 FB68     		ldr	r3, [r7, #12]
  53 0016 5A68     		ldr	r2, [r3, #4]
  54 0018 FB68     		ldr	r3, [r7, #12]
  55 001a 1B68     		ldr	r3, [r3]
  56 001c 9BB2     		uxth	r3, r3
  57 001e 1946     		mov	r1, r3
  58 0020 1046     		mov	r0, r2
  59 0022 FFF7FEFF 		bl	HAL_GPIO_ReadPin
  60 0026 0346     		mov	r3, r0
  61 0028 BB61     		str	r3, [r7, #24]
  10:Src/encoder.c **** 	int state_b = HAL_GPIO_ReadPin(p_encoder->port_b, p_encoder->pin_b);
  62              		.loc 1 10 0
  63 002a FB68     		ldr	r3, [r7, #12]
  64 002c DA68     		ldr	r2, [r3, #12]
  65 002e FB68     		ldr	r3, [r7, #12]
  66 0030 9B68     		ldr	r3, [r3, #8]
  67 0032 9BB2     		uxth	r3, r3
  68 0034 1946     		mov	r1, r3
  69 0036 1046     		mov	r0, r2
  70 0038 FFF7FEFF 		bl	HAL_GPIO_ReadPin
  71 003c 0346     		mov	r3, r0
  72 003e 7B61     		str	r3, [r7, #20]
  11:Src/encoder.c **** 	int state_btn = HAL_GPIO_ReadPin(p_encoder->port_btn, p_encoder->pin_btn);
  73              		.loc 1 11 0
  74 0040 FB68     		ldr	r3, [r7, #12]
  75 0042 5A69     		ldr	r2, [r3, #20]
  76 0044 FB68     		ldr	r3, [r7, #12]
  77 0046 1B69     		ldr	r3, [r3, #16]
  78 0048 9BB2     		uxth	r3, r3
  79 004a 1946     		mov	r1, r3
  80 004c 1046     		mov	r0, r2
  81 004e FFF7FEFF 		bl	HAL_GPIO_ReadPin
  82 0052 0346     		mov	r3, r0
  83 0054 3B61     		str	r3, [r7, #16]
  12:Src/encoder.c **** 
  13:Src/encoder.c **** 	int event = -1;
  84              		.loc 1 13 0
  85 0056 4FF0FF33 		mov	r3, #-1
  86 005a FB61     		str	r3, [r7, #28]
  14:Src/encoder.c **** 
  15:Src/encoder.c **** 	if((port == p_encoder->port_a && pin == p_encoder->pin_a) || (port == p_encoder->port_b && pin == 
  87              		.loc 1 15 0
  88 005c FB68     		ldr	r3, [r7, #12]
  89 005e 5A68     		ldr	r2, [r3, #4]
  90 0060 BB68     		ldr	r3, [r7, #8]
  91 0062 9A42     		cmp	r2, r3
  92 0064 04D1     		bne	.L4
  93              		.loc 1 15 0 is_stmt 0 discriminator 1
  94 0066 FB68     		ldr	r3, [r7, #12]
  95 0068 1A68     		ldr	r2, [r3]
  96 006a 7B68     		ldr	r3, [r7, #4]
  97 006c 9A42     		cmp	r2, r3
  98 006e 09D0     		beq	.L5
  99              	.L4:
 100              		.loc 1 15 0 discriminator 3
ARM GAS  C:\Users\MATEUS~1\AppData\Local\Temp\ccpPluJn.s 			page 3


 101 0070 FB68     		ldr	r3, [r7, #12]
 102 0072 DA68     		ldr	r2, [r3, #12]
 103 0074 BB68     		ldr	r3, [r7, #8]
 104 0076 9A42     		cmp	r2, r3
 105 0078 15D1     		bne	.L6
 106              		.loc 1 15 0 discriminator 4
 107 007a FB68     		ldr	r3, [r7, #12]
 108 007c 9A68     		ldr	r2, [r3, #8]
 109 007e 7B68     		ldr	r3, [r7, #4]
 110 0080 9A42     		cmp	r2, r3
 111 0082 10D1     		bne	.L6
 112              	.L5:
  16:Src/encoder.c **** 		if( state_a && !state_b ) { // forward
 113              		.loc 1 16 0 is_stmt 1
 114 0084 BB69     		ldr	r3, [r7, #24]
 115 0086 002B     		cmp	r3, #0
 116 0088 05D0     		beq	.L7
 117              		.loc 1 16 0 is_stmt 0 discriminator 1
 118 008a 7B69     		ldr	r3, [r7, #20]
 119 008c 002B     		cmp	r3, #0
 120 008e 02D1     		bne	.L7
  17:Src/encoder.c **** 			event = ENCODER_BACKWARD;
 121              		.loc 1 17 0 is_stmt 1
 122 0090 0323     		movs	r3, #3
 123 0092 FB61     		str	r3, [r7, #28]
 124 0094 07E0     		b	.L6
 125              	.L7:
  18:Src/encoder.c **** 
  19:Src/encoder.c **** 		} else if(!state_a && state_b) { // backward
 126              		.loc 1 19 0
 127 0096 BB69     		ldr	r3, [r7, #24]
 128 0098 002B     		cmp	r3, #0
 129 009a 04D1     		bne	.L6
 130              		.loc 1 19 0 is_stmt 0 discriminator 1
 131 009c 7B69     		ldr	r3, [r7, #20]
 132 009e 002B     		cmp	r3, #0
 133 00a0 01D0     		beq	.L6
  20:Src/encoder.c **** 			event = ENCODER_FORWARD;
 134              		.loc 1 20 0 is_stmt 1
 135 00a2 0223     		movs	r3, #2
 136 00a4 FB61     		str	r3, [r7, #28]
 137              	.L6:
  21:Src/encoder.c **** 		}
  22:Src/encoder.c **** 	} else if(port == p_encoder->port_btn && pin == p_encoder->pin_btn) {
  23:Src/encoder.c **** 	}
  24:Src/encoder.c **** 
  25:Src/encoder.c **** 	if(event != -1) {
 138              		.loc 1 25 0
 139 00a6 FB69     		ldr	r3, [r7, #28]
 140 00a8 B3F1FF3F 		cmp	r3, #-1
 141 00ac 08D0     		beq	.L1
  26:Src/encoder.c **** 		p_encoder->event_handler(p_encoder, event);
 142              		.loc 1 26 0
 143 00ae FB68     		ldr	r3, [r7, #12]
 144 00b0 9B69     		ldr	r3, [r3, #24]
 145 00b2 FA69     		ldr	r2, [r7, #28]
 146 00b4 D2B2     		uxtb	r2, r2
ARM GAS  C:\Users\MATEUS~1\AppData\Local\Temp\ccpPluJn.s 			page 4


 147 00b6 1146     		mov	r1, r2
 148 00b8 F868     		ldr	r0, [r7, #12]
 149 00ba 9847     		blx	r3
 150 00bc 00E0     		b	.L1
 151              	.L8:
   7:Src/encoder.c **** 
 152              		.loc 1 7 0
 153 00be 00BF     		nop
 154              	.L1:
  27:Src/encoder.c **** 	}
  28:Src/encoder.c **** 
  29:Src/encoder.c **** }
 155              		.loc 1 29 0
 156 00c0 2037     		adds	r7, r7, #32
 157              	.LCFI3:
 158              		.cfi_def_cfa_offset 8
 159 00c2 BD46     		mov	sp, r7
 160              	.LCFI4:
 161              		.cfi_def_cfa_register 13
 162              		@ sp needed
 163 00c4 80BD     		pop	{r7, pc}
 164              		.cfi_endproc
 165              	.LFE64:
 167 00c6 00BF     		.text
 168              	.Letext0:
 169              		.file 2 "c:\\program files (x86)\\gnu tools arm embedded\\5.4 2016q3\\arm-none-eabi\\include\\mach
 170              		.file 3 "c:\\program files (x86)\\gnu tools arm embedded\\5.4 2016q3\\arm-none-eabi\\include\\sys\
 171              		.file 4 "Drivers/CMSIS/Device/ST/STM32F1xx/Include/stm32f103xb.h"
 172              		.file 5 "Inc/encoder.h"
 173              		.file 6 "Drivers/CMSIS/Include/core_cm3.h"
ARM GAS  C:\Users\MATEUS~1\AppData\Local\Temp\ccpPluJn.s 			page 5

