ARM GAS  C:\Users\MATEUS~1\AppData\Local\Temp\cc4sgKOJ.s 			page 1


   1              		.syntax unified
   2              		.cpu cortex-m3
   3              		.fpu softvfp
   4              		.eabi_attribute 20, 1
   5              		.eabi_attribute 21, 1
   6              		.eabi_attribute 23, 3
   7              		.eabi_attribute 24, 1
   8              		.eabi_attribute 25, 1
   9              		.eabi_attribute 26, 1
  10              		.eabi_attribute 30, 6
  11              		.eabi_attribute 34, 1
  12              		.eabi_attribute 18, 4
  13              		.thumb
  14              		.syntax unified
  15              		.file	"gpio.c"
  16              		.text
  17              	.Ltext0:
  18              		.cfi_sections	.debug_frame
  19              		.section	.text.MX_GPIO_Init,"ax",%progbits
  20              		.align	2
  21              		.global	MX_GPIO_Init
  22              		.thumb
  23              		.thumb_func
  25              	MX_GPIO_Init:
  26              	.LFB64:
  27              		.file 1 "Src/gpio.c"
   1:Src/gpio.c    **** /**
   2:Src/gpio.c    ****   ******************************************************************************
   3:Src/gpio.c    ****   * File Name          : gpio.c
   4:Src/gpio.c    ****   * Description        : This file provides code for the configuration
   5:Src/gpio.c    ****   *                      of all used GPIO pins.
   6:Src/gpio.c    ****   ******************************************************************************
   7:Src/gpio.c    ****   ** This notice applies to any and all portions of this file
   8:Src/gpio.c    ****   * that are not between comment pairs USER CODE BEGIN and
   9:Src/gpio.c    ****   * USER CODE END. Other portions of this file, whether 
  10:Src/gpio.c    ****   * inserted by the user or by software development tools
  11:Src/gpio.c    ****   * are owned by their respective copyright owners.
  12:Src/gpio.c    ****   *
  13:Src/gpio.c    ****   * COPYRIGHT(c) 2018 STMicroelectronics
  14:Src/gpio.c    ****   *
  15:Src/gpio.c    ****   * Redistribution and use in source and binary forms, with or without modification,
  16:Src/gpio.c    ****   * are permitted provided that the following conditions are met:
  17:Src/gpio.c    ****   *   1. Redistributions of source code must retain the above copyright notice,
  18:Src/gpio.c    ****   *      this list of conditions and the following disclaimer.
  19:Src/gpio.c    ****   *   2. Redistributions in binary form must reproduce the above copyright notice,
  20:Src/gpio.c    ****   *      this list of conditions and the following disclaimer in the documentation
  21:Src/gpio.c    ****   *      and/or other materials provided with the distribution.
  22:Src/gpio.c    ****   *   3. Neither the name of STMicroelectronics nor the names of its contributors
  23:Src/gpio.c    ****   *      may be used to endorse or promote products derived from this software
  24:Src/gpio.c    ****   *      without specific prior written permission.
  25:Src/gpio.c    ****   *
  26:Src/gpio.c    ****   * THIS SOFTWARE IS PROVIDED BY THE COPYRIGHT HOLDERS AND CONTRIBUTORS "AS IS"
  27:Src/gpio.c    ****   * AND ANY EXPRESS OR IMPLIED WARRANTIES, INCLUDING, BUT NOT LIMITED TO, THE
  28:Src/gpio.c    ****   * IMPLIED WARRANTIES OF MERCHANTABILITY AND FITNESS FOR A PARTICULAR PURPOSE ARE
  29:Src/gpio.c    ****   * DISCLAIMED. IN NO EVENT SHALL THE COPYRIGHT HOLDER OR CONTRIBUTORS BE LIABLE
  30:Src/gpio.c    ****   * FOR ANY DIRECT, INDIRECT, INCIDENTAL, SPECIAL, EXEMPLARY, OR CONSEQUENTIAL
  31:Src/gpio.c    ****   * DAMAGES (INCLUDING, BUT NOT LIMITED TO, PROCUREMENT OF SUBSTITUTE GOODS OR
ARM GAS  C:\Users\MATEUS~1\AppData\Local\Temp\cc4sgKOJ.s 			page 2


  32:Src/gpio.c    ****   * SERVICES; LOSS OF USE, DATA, OR PROFITS; OR BUSINESS INTERRUPTION) HOWEVER
  33:Src/gpio.c    ****   * CAUSED AND ON ANY THEORY OF LIABILITY, WHETHER IN CONTRACT, STRICT LIABILITY,
  34:Src/gpio.c    ****   * OR TORT (INCLUDING NEGLIGENCE OR OTHERWISE) ARISING IN ANY WAY OUT OF THE USE
  35:Src/gpio.c    ****   * OF THIS SOFTWARE, EVEN IF ADVISED OF THE POSSIBILITY OF SUCH DAMAGE.
  36:Src/gpio.c    ****   *
  37:Src/gpio.c    ****   ******************************************************************************
  38:Src/gpio.c    ****   */
  39:Src/gpio.c    **** 
  40:Src/gpio.c    **** /* Includes ------------------------------------------------------------------*/
  41:Src/gpio.c    **** #include "gpio.h"
  42:Src/gpio.c    **** /* USER CODE BEGIN 0 */
  43:Src/gpio.c    **** 
  44:Src/gpio.c    **** /* USER CODE END 0 */
  45:Src/gpio.c    **** 
  46:Src/gpio.c    **** /*----------------------------------------------------------------------------*/
  47:Src/gpio.c    **** /* Configure GPIO                                                             */
  48:Src/gpio.c    **** /*----------------------------------------------------------------------------*/
  49:Src/gpio.c    **** /* USER CODE BEGIN 1 */
  50:Src/gpio.c    **** 
  51:Src/gpio.c    **** /* USER CODE END 1 */
  52:Src/gpio.c    **** 
  53:Src/gpio.c    **** /** Configure pins as 
  54:Src/gpio.c    ****         * Analog 
  55:Src/gpio.c    ****         * Input 
  56:Src/gpio.c    ****         * Output
  57:Src/gpio.c    ****         * EVENT_OUT
  58:Src/gpio.c    ****         * EXTI
  59:Src/gpio.c    **** */
  60:Src/gpio.c    **** void MX_GPIO_Init(void)
  61:Src/gpio.c    **** {
  28              		.loc 1 61 0
  29              		.cfi_startproc
  30              		@ args = 0, pretend = 0, frame = 32
  31              		@ frame_needed = 1, uses_anonymous_args = 0
  32 0000 80B5     		push	{r7, lr}
  33              	.LCFI0:
  34              		.cfi_def_cfa_offset 8
  35              		.cfi_offset 7, -8
  36              		.cfi_offset 14, -4
  37 0002 88B0     		sub	sp, sp, #32
  38              	.LCFI1:
  39              		.cfi_def_cfa_offset 40
  40 0004 00AF     		add	r7, sp, #0
  41              	.LCFI2:
  42              		.cfi_def_cfa_register 7
  43              	.LBB2:
  62:Src/gpio.c    **** 
  63:Src/gpio.c    ****   GPIO_InitTypeDef GPIO_InitStruct;
  64:Src/gpio.c    **** 
  65:Src/gpio.c    ****   /* GPIO Ports Clock Enable */
  66:Src/gpio.c    ****   __HAL_RCC_GPIOC_CLK_ENABLE();
  44              		.loc 1 66 0
  45 0006 284A     		ldr	r2, .L2
  46 0008 274B     		ldr	r3, .L2
  47 000a 9B69     		ldr	r3, [r3, #24]
  48 000c 43F01003 		orr	r3, r3, #16
  49 0010 9361     		str	r3, [r2, #24]
ARM GAS  C:\Users\MATEUS~1\AppData\Local\Temp\cc4sgKOJ.s 			page 3


  50 0012 254B     		ldr	r3, .L2
  51 0014 9B69     		ldr	r3, [r3, #24]
  52 0016 03F01003 		and	r3, r3, #16
  53 001a FB60     		str	r3, [r7, #12]
  54 001c FB68     		ldr	r3, [r7, #12]
  55              	.LBE2:
  56              	.LBB3:
  67:Src/gpio.c    ****   __HAL_RCC_GPIOB_CLK_ENABLE();
  57              		.loc 1 67 0
  58 001e 224A     		ldr	r2, .L2
  59 0020 214B     		ldr	r3, .L2
  60 0022 9B69     		ldr	r3, [r3, #24]
  61 0024 43F00803 		orr	r3, r3, #8
  62 0028 9361     		str	r3, [r2, #24]
  63 002a 1F4B     		ldr	r3, .L2
  64 002c 9B69     		ldr	r3, [r3, #24]
  65 002e 03F00803 		and	r3, r3, #8
  66 0032 BB60     		str	r3, [r7, #8]
  67 0034 BB68     		ldr	r3, [r7, #8]
  68              	.LBE3:
  69              	.LBB4:
  68:Src/gpio.c    ****   __HAL_RCC_GPIOA_CLK_ENABLE();
  70              		.loc 1 68 0
  71 0036 1C4A     		ldr	r2, .L2
  72 0038 1B4B     		ldr	r3, .L2
  73 003a 9B69     		ldr	r3, [r3, #24]
  74 003c 43F00403 		orr	r3, r3, #4
  75 0040 9361     		str	r3, [r2, #24]
  76 0042 194B     		ldr	r3, .L2
  77 0044 9B69     		ldr	r3, [r3, #24]
  78 0046 03F00403 		and	r3, r3, #4
  79 004a 7B60     		str	r3, [r7, #4]
  80 004c 7B68     		ldr	r3, [r7, #4]
  81              	.LBE4:
  69:Src/gpio.c    **** 
  70:Src/gpio.c    ****   /*Configure GPIO pins : PC13 PC14 */
  71:Src/gpio.c    ****   GPIO_InitStruct.Pin = GPIO_PIN_13|GPIO_PIN_14;
  82              		.loc 1 71 0
  83 004e 4FF4C043 		mov	r3, #24576
  84 0052 3B61     		str	r3, [r7, #16]
  72:Src/gpio.c    ****   GPIO_InitStruct.Mode = GPIO_MODE_IT_FALLING;
  85              		.loc 1 72 0
  86 0054 154B     		ldr	r3, .L2+4
  87 0056 7B61     		str	r3, [r7, #20]
  73:Src/gpio.c    ****   GPIO_InitStruct.Pull = GPIO_PULLUP;
  88              		.loc 1 73 0
  89 0058 0123     		movs	r3, #1
  90 005a BB61     		str	r3, [r7, #24]
  74:Src/gpio.c    ****   HAL_GPIO_Init(GPIOC, &GPIO_InitStruct);
  91              		.loc 1 74 0
  92 005c 07F11003 		add	r3, r7, #16
  93 0060 1946     		mov	r1, r3
  94 0062 1348     		ldr	r0, .L2+8
  95 0064 FFF7FEFF 		bl	HAL_GPIO_Init
  75:Src/gpio.c    **** 
  76:Src/gpio.c    ****   /*Configure GPIO pin : PB1 */
  77:Src/gpio.c    ****   GPIO_InitStruct.Pin = GPIO_PIN_1;
ARM GAS  C:\Users\MATEUS~1\AppData\Local\Temp\cc4sgKOJ.s 			page 4


  96              		.loc 1 77 0
  97 0068 0223     		movs	r3, #2
  98 006a 3B61     		str	r3, [r7, #16]
  78:Src/gpio.c    ****   GPIO_InitStruct.Mode = GPIO_MODE_IT_FALLING;
  99              		.loc 1 78 0
 100 006c 0F4B     		ldr	r3, .L2+4
 101 006e 7B61     		str	r3, [r7, #20]
  79:Src/gpio.c    ****   GPIO_InitStruct.Pull = GPIO_PULLUP;
 102              		.loc 1 79 0
 103 0070 0123     		movs	r3, #1
 104 0072 BB61     		str	r3, [r7, #24]
  80:Src/gpio.c    ****   HAL_GPIO_Init(GPIOB, &GPIO_InitStruct);
 105              		.loc 1 80 0
 106 0074 07F11003 		add	r3, r7, #16
 107 0078 1946     		mov	r1, r3
 108 007a 0E48     		ldr	r0, .L2+12
 109 007c FFF7FEFF 		bl	HAL_GPIO_Init
  81:Src/gpio.c    **** 
  82:Src/gpio.c    ****   /* EXTI interrupt init*/
  83:Src/gpio.c    ****   HAL_NVIC_SetPriority(EXTI1_IRQn, 0, 0);
 110              		.loc 1 83 0
 111 0080 0022     		movs	r2, #0
 112 0082 0021     		movs	r1, #0
 113 0084 0720     		movs	r0, #7
 114 0086 FFF7FEFF 		bl	HAL_NVIC_SetPriority
  84:Src/gpio.c    ****   HAL_NVIC_EnableIRQ(EXTI1_IRQn);
 115              		.loc 1 84 0
 116 008a 0720     		movs	r0, #7
 117 008c FFF7FEFF 		bl	HAL_NVIC_EnableIRQ
  85:Src/gpio.c    **** 
  86:Src/gpio.c    ****   HAL_NVIC_SetPriority(EXTI15_10_IRQn, 0, 0);
 118              		.loc 1 86 0
 119 0090 0022     		movs	r2, #0
 120 0092 0021     		movs	r1, #0
 121 0094 2820     		movs	r0, #40
 122 0096 FFF7FEFF 		bl	HAL_NVIC_SetPriority
  87:Src/gpio.c    ****   HAL_NVIC_EnableIRQ(EXTI15_10_IRQn);
 123              		.loc 1 87 0
 124 009a 2820     		movs	r0, #40
 125 009c FFF7FEFF 		bl	HAL_NVIC_EnableIRQ
  88:Src/gpio.c    **** 
  89:Src/gpio.c    **** }
 126              		.loc 1 89 0
 127 00a0 00BF     		nop
 128 00a2 2037     		adds	r7, r7, #32
 129              	.LCFI3:
 130              		.cfi_def_cfa_offset 8
 131 00a4 BD46     		mov	sp, r7
 132              	.LCFI4:
 133              		.cfi_def_cfa_register 13
 134              		@ sp needed
 135 00a6 80BD     		pop	{r7, pc}
 136              	.L3:
 137              		.align	2
 138              	.L2:
 139 00a8 00100240 		.word	1073876992
 140 00ac 00002110 		.word	270598144
ARM GAS  C:\Users\MATEUS~1\AppData\Local\Temp\cc4sgKOJ.s 			page 5


 141 00b0 00100140 		.word	1073811456
 142 00b4 000C0140 		.word	1073810432
 143              		.cfi_endproc
 144              	.LFE64:
 146              		.text
 147              	.Letext0:
 148              		.file 2 "c:\\program files (x86)\\gnu tools arm embedded\\5.4 2016q3\\arm-none-eabi\\include\\mach
 149              		.file 3 "c:\\program files (x86)\\gnu tools arm embedded\\5.4 2016q3\\arm-none-eabi\\include\\sys\
 150              		.file 4 "Drivers/CMSIS/Device/ST/STM32F1xx/Include/stm32f103xb.h"
 151              		.file 5 "Drivers/STM32F1xx_HAL_Driver/Inc/stm32f1xx_hal_gpio.h"
 152              		.file 6 "Drivers/CMSIS/Include/core_cm3.h"
ARM GAS  C:\Users\MATEUS~1\AppData\Local\Temp\cc4sgKOJ.s 			page 6

