ARM GAS  C:\Users\MATEUS~1\AppData\Local\Temp\ccagvv5I.s 			page 1


   1              		.syntax unified
   2              		.cpu cortex-m3
   3              		.fpu softvfp
   4              		.eabi_attribute 20, 1
   5              		.eabi_attribute 21, 1
   6              		.eabi_attribute 23, 3
   7              		.eabi_attribute 24, 1
   8              		.eabi_attribute 25, 1
   9              		.eabi_attribute 26, 1
  10              		.eabi_attribute 30, 6
  11              		.eabi_attribute 34, 1
  12              		.eabi_attribute 18, 4
  13              		.thumb
  14              		.syntax unified
  15              		.file	"main.c"
  16              		.text
  17              	.Ltext0:
  18              		.cfi_sections	.debug_frame
  19              		.section	.text.encoder_x_event_handler,"ax",%progbits
  20              		.align	2
  21              		.global	encoder_x_event_handler
  22              		.thumb
  23              		.thumb_func
  25              	encoder_x_event_handler:
  26              	.LFB64:
  27              		.file 1 "Src/main.c"
   1:Src/main.c    **** 
   2:Src/main.c    **** /**
   3:Src/main.c    ****   ******************************************************************************
   4:Src/main.c    ****   * @file           : main.c
   5:Src/main.c    ****   * @brief          : Main program body
   6:Src/main.c    ****   ******************************************************************************
   7:Src/main.c    ****   ** This notice applies to any and all portions of this file
   8:Src/main.c    ****   * that are not between comment pairs USER CODE BEGIN and
   9:Src/main.c    ****   * USER CODE END. Other portions of this file, whether 
  10:Src/main.c    ****   * inserted by the user or by software development tools
  11:Src/main.c    ****   * are owned by their respective copyright owners.
  12:Src/main.c    ****   *
  13:Src/main.c    ****   * COPYRIGHT(c) 2018 STMicroelectronics
  14:Src/main.c    ****   *
  15:Src/main.c    ****   * Redistribution and use in source and binary forms, with or without modification,
  16:Src/main.c    ****   * are permitted provided that the following conditions are met:
  17:Src/main.c    ****   *   1. Redistributions of source code must retain the above copyright notice,
  18:Src/main.c    ****   *      this list of conditions and the following disclaimer.
  19:Src/main.c    ****   *   2. Redistributions in binary form must reproduce the above copyright notice,
  20:Src/main.c    ****   *      this list of conditions and the following disclaimer in the documentation
  21:Src/main.c    ****   *      and/or other materials provided with the distribution.
  22:Src/main.c    ****   *   3. Neither the name of STMicroelectronics nor the names of its contributors
  23:Src/main.c    ****   *      may be used to endorse or promote products derived from this software
  24:Src/main.c    ****   *      without specific prior written permission.
  25:Src/main.c    ****   *
  26:Src/main.c    ****   * THIS SOFTWARE IS PROVIDED BY THE COPYRIGHT HOLDERS AND CONTRIBUTORS "AS IS"
  27:Src/main.c    ****   * AND ANY EXPRESS OR IMPLIED WARRANTIES, INCLUDING, BUT NOT LIMITED TO, THE
  28:Src/main.c    ****   * IMPLIED WARRANTIES OF MERCHANTABILITY AND FITNESS FOR A PARTICULAR PURPOSE ARE
  29:Src/main.c    ****   * DISCLAIMED. IN NO EVENT SHALL THE COPYRIGHT HOLDER OR CONTRIBUTORS BE LIABLE
  30:Src/main.c    ****   * FOR ANY DIRECT, INDIRECT, INCIDENTAL, SPECIAL, EXEMPLARY, OR CONSEQUENTIAL
  31:Src/main.c    ****   * DAMAGES (INCLUDING, BUT NOT LIMITED TO, PROCUREMENT OF SUBSTITUTE GOODS OR
ARM GAS  C:\Users\MATEUS~1\AppData\Local\Temp\ccagvv5I.s 			page 2


  32:Src/main.c    ****   * SERVICES; LOSS OF USE, DATA, OR PROFITS; OR BUSINESS INTERRUPTION) HOWEVER
  33:Src/main.c    ****   * CAUSED AND ON ANY THEORY OF LIABILITY, WHETHER IN CONTRACT, STRICT LIABILITY,
  34:Src/main.c    ****   * OR TORT (INCLUDING NEGLIGENCE OR OTHERWISE) ARISING IN ANY WAY OUT OF THE USE
  35:Src/main.c    ****   * OF THIS SOFTWARE, EVEN IF ADVISED OF THE POSSIBILITY OF SUCH DAMAGE.
  36:Src/main.c    ****   *
  37:Src/main.c    ****   ******************************************************************************
  38:Src/main.c    ****   */
  39:Src/main.c    **** /* Includes ------------------------------------------------------------------*/
  40:Src/main.c    **** #include "main.h"
  41:Src/main.c    **** #include "stm32f1xx_hal.h"
  42:Src/main.c    **** #include "gpio.h"
  43:Src/main.c    **** 
  44:Src/main.c    **** /* USER CODE BEGIN Includes */
  45:Src/main.c    **** 
  46:Src/main.c    **** #include "encoder.h"
  47:Src/main.c    **** 
  48:Src/main.c    **** /* USER CODE END Includes */
  49:Src/main.c    **** 
  50:Src/main.c    **** /* Private variables ---------------------------------------------------------*/
  51:Src/main.c    **** 
  52:Src/main.c    **** /* USER CODE BEGIN PV */
  53:Src/main.c    **** /* Private variables ---------------------------------------------------------*/
  54:Src/main.c    **** 
  55:Src/main.c    **** /* USER CODE END PV */
  56:Src/main.c    **** 
  57:Src/main.c    **** /* Private function prototypes -----------------------------------------------*/
  58:Src/main.c    **** void SystemClock_Config(void);
  59:Src/main.c    **** 
  60:Src/main.c    **** /* USER CODE BEGIN PFP */
  61:Src/main.c    **** /* Private function prototypes -----------------------------------------------*/
  62:Src/main.c    **** 
  63:Src/main.c    **** /* USER CODE END PFP */
  64:Src/main.c    **** 
  65:Src/main.c    **** /* USER CODE BEGIN 0 */
  66:Src/main.c    **** 
  67:Src/main.c    **** void encoder_x_event_handler(struct encoder_s *p_encoder, encoder_event_t event_t) {
  28              		.loc 1 67 0
  29              		.cfi_startproc
  30              		@ args = 0, pretend = 0, frame = 8
  31              		@ frame_needed = 1, uses_anonymous_args = 0
  32              		@ link register save eliminated.
  33 0000 80B4     		push	{r7}
  34              	.LCFI0:
  35              		.cfi_def_cfa_offset 4
  36              		.cfi_offset 7, -4
  37 0002 83B0     		sub	sp, sp, #12
  38              	.LCFI1:
  39              		.cfi_def_cfa_offset 16
  40 0004 00AF     		add	r7, sp, #0
  41              	.LCFI2:
  42              		.cfi_def_cfa_register 7
  43 0006 7860     		str	r0, [r7, #4]
  44 0008 0B46     		mov	r3, r1
  45 000a FB70     		strb	r3, [r7, #3]
  68:Src/main.c    **** 
  69:Src/main.c    **** }
  46              		.loc 1 69 0
ARM GAS  C:\Users\MATEUS~1\AppData\Local\Temp\ccagvv5I.s 			page 3


  47 000c 00BF     		nop
  48 000e 0C37     		adds	r7, r7, #12
  49              	.LCFI3:
  50              		.cfi_def_cfa_offset 4
  51 0010 BD46     		mov	sp, r7
  52              	.LCFI4:
  53              		.cfi_def_cfa_register 13
  54              		@ sp needed
  55 0012 80BC     		pop	{r7}
  56              	.LCFI5:
  57              		.cfi_restore 7
  58              		.cfi_def_cfa_offset 0
  59 0014 7047     		bx	lr
  60              		.cfi_endproc
  61              	.LFE64:
  63              		.global	encoder_x
  64 0016 00BF     		.section	.data.encoder_x,"aw",%progbits
  65              		.align	2
  68              	encoder_x:
  69 0000 00400000 		.word	16384
  70 0004 00100140 		.word	1073811456
  71 0008 02000000 		.word	2
  72 000c 000C0140 		.word	1073810432
  73 0010 00200000 		.word	8192
  74 0014 00100140 		.word	1073811456
  75 0018 00000000 		.word	encoder_x_event_handler
  76              		.section	.text.main,"ax",%progbits
  77              		.align	2
  78              		.global	main
  79              		.thumb
  80              		.thumb_func
  82              	main:
  83              	.LFB65:
  70:Src/main.c    **** 
  71:Src/main.c    **** encoder_t encoder_x = {
  72:Src/main.c    **** 		.port_a = GPIOC,
  73:Src/main.c    **** 		.pin_a = GPIO_PIN_14,
  74:Src/main.c    **** 		.port_b = GPIOB,
  75:Src/main.c    **** 		.pin_b = GPIO_PIN_1,
  76:Src/main.c    **** 		.port_btn = GPIOC,
  77:Src/main.c    **** 		.pin_btn = GPIO_PIN_13,
  78:Src/main.c    **** 		.event_handler = encoder_x_event_handler,
  79:Src/main.c    **** };
  80:Src/main.c    **** 
  81:Src/main.c    **** /* USER CODE END 0 */
  82:Src/main.c    **** 
  83:Src/main.c    **** /**
  84:Src/main.c    ****   * @brief  The application entry point.
  85:Src/main.c    ****   *
  86:Src/main.c    ****   * @retval None
  87:Src/main.c    ****   */
  88:Src/main.c    **** int main(void)
  89:Src/main.c    **** {
  84              		.loc 1 89 0
  85              		.cfi_startproc
  86              		@ args = 0, pretend = 0, frame = 0
  87              		@ frame_needed = 1, uses_anonymous_args = 0
ARM GAS  C:\Users\MATEUS~1\AppData\Local\Temp\ccagvv5I.s 			page 4


  88 0000 80B5     		push	{r7, lr}
  89              	.LCFI6:
  90              		.cfi_def_cfa_offset 8
  91              		.cfi_offset 7, -8
  92              		.cfi_offset 14, -4
  93 0002 00AF     		add	r7, sp, #0
  94              	.LCFI7:
  95              		.cfi_def_cfa_register 7
  90:Src/main.c    ****   /* USER CODE BEGIN 1 */
  91:Src/main.c    **** 
  92:Src/main.c    ****   /* USER CODE END 1 */
  93:Src/main.c    **** 
  94:Src/main.c    ****   /* MCU Configuration----------------------------------------------------------*/
  95:Src/main.c    **** 
  96:Src/main.c    ****   /* Reset of all peripherals, Initializes the Flash interface and the Systick. */
  97:Src/main.c    ****   HAL_Init();
  96              		.loc 1 97 0
  97 0004 FFF7FEFF 		bl	HAL_Init
  98:Src/main.c    **** 
  99:Src/main.c    ****   /* USER CODE BEGIN Init */
 100:Src/main.c    **** 
 101:Src/main.c    ****   /* USER CODE END Init */
 102:Src/main.c    **** 
 103:Src/main.c    ****   /* Configure the system clock */
 104:Src/main.c    ****   SystemClock_Config();
  98              		.loc 1 104 0
  99 0008 FFF7FEFF 		bl	SystemClock_Config
 105:Src/main.c    **** 
 106:Src/main.c    ****   /* USER CODE BEGIN SysInit */
 107:Src/main.c    **** 
 108:Src/main.c    ****   /* USER CODE END SysInit */
 109:Src/main.c    **** 
 110:Src/main.c    ****   /* Initialize all configured peripherals */
 111:Src/main.c    ****   MX_GPIO_Init();
 100              		.loc 1 111 0
 101 000c FFF7FEFF 		bl	MX_GPIO_Init
 102              	.L3:
 112:Src/main.c    ****   /* USER CODE BEGIN 2 */
 113:Src/main.c    **** 
 114:Src/main.c    **** 
 115:Src/main.c    ****   /* USER CODE END 2 */
 116:Src/main.c    **** 
 117:Src/main.c    ****   /* Infinite loop */
 118:Src/main.c    ****   /* USER CODE BEGIN WHILE */
 119:Src/main.c    ****   while (1)
 120:Src/main.c    ****   {
 121:Src/main.c    **** 
 122:Src/main.c    ****   /* USER CODE END WHILE */
 123:Src/main.c    **** 
 124:Src/main.c    ****   /* USER CODE BEGIN 3 */
 125:Src/main.c    **** 
 126:Src/main.c    ****   }
 103              		.loc 1 126 0 discriminator 1
 104 0010 FEE7     		b	.L3
 105              		.cfi_endproc
 106              	.LFE65:
 108 0012 00BF     		.section	.rodata
ARM GAS  C:\Users\MATEUS~1\AppData\Local\Temp\ccagvv5I.s 			page 5


 109              		.align	2
 110              	.LC0:
 111 0000 5372632F 		.ascii	"Src/main.c\000"
 111      6D61696E 
 111      2E6300
 112              		.section	.text.SystemClock_Config,"ax",%progbits
 113              		.align	2
 114              		.global	SystemClock_Config
 115              		.thumb
 116              		.thumb_func
 118              	SystemClock_Config:
 119              	.LFB66:
 127:Src/main.c    ****   /* USER CODE END 3 */
 128:Src/main.c    **** 
 129:Src/main.c    **** }
 130:Src/main.c    **** 
 131:Src/main.c    **** /**
 132:Src/main.c    ****   * @brief System Clock Configuration
 133:Src/main.c    ****   * @retval None
 134:Src/main.c    ****   */
 135:Src/main.c    **** void SystemClock_Config(void)
 136:Src/main.c    **** {
 120              		.loc 1 136 0
 121              		.cfi_startproc
 122              		@ args = 0, pretend = 0, frame = 64
 123              		@ frame_needed = 1, uses_anonymous_args = 0
 124 0000 80B5     		push	{r7, lr}
 125              	.LCFI8:
 126              		.cfi_def_cfa_offset 8
 127              		.cfi_offset 7, -8
 128              		.cfi_offset 14, -4
 129 0002 90B0     		sub	sp, sp, #64
 130              	.LCFI9:
 131              		.cfi_def_cfa_offset 72
 132 0004 00AF     		add	r7, sp, #0
 133              	.LCFI10:
 134              		.cfi_def_cfa_register 7
 137:Src/main.c    **** 
 138:Src/main.c    ****   RCC_OscInitTypeDef RCC_OscInitStruct;
 139:Src/main.c    ****   RCC_ClkInitTypeDef RCC_ClkInitStruct;
 140:Src/main.c    **** 
 141:Src/main.c    ****     /**Initializes the CPU, AHB and APB busses clocks 
 142:Src/main.c    ****     */
 143:Src/main.c    ****   RCC_OscInitStruct.OscillatorType = RCC_OSCILLATORTYPE_HSI;
 135              		.loc 1 143 0
 136 0006 0223     		movs	r3, #2
 137 0008 BB61     		str	r3, [r7, #24]
 144:Src/main.c    ****   RCC_OscInitStruct.HSIState = RCC_HSI_ON;
 138              		.loc 1 144 0
 139 000a 0123     		movs	r3, #1
 140 000c BB62     		str	r3, [r7, #40]
 145:Src/main.c    ****   RCC_OscInitStruct.HSICalibrationValue = 16;
 141              		.loc 1 145 0
 142 000e 1023     		movs	r3, #16
 143 0010 FB62     		str	r3, [r7, #44]
 146:Src/main.c    ****   RCC_OscInitStruct.PLL.PLLState = RCC_PLL_NONE;
 144              		.loc 1 146 0
ARM GAS  C:\Users\MATEUS~1\AppData\Local\Temp\ccagvv5I.s 			page 6


 145 0012 0023     		movs	r3, #0
 146 0014 7B63     		str	r3, [r7, #52]
 147:Src/main.c    ****   if (HAL_RCC_OscConfig(&RCC_OscInitStruct) != HAL_OK)
 147              		.loc 1 147 0
 148 0016 07F11803 		add	r3, r7, #24
 149 001a 1846     		mov	r0, r3
 150 001c FFF7FEFF 		bl	HAL_RCC_OscConfig
 151 0020 0346     		mov	r3, r0
 152 0022 002B     		cmp	r3, #0
 153 0024 03D0     		beq	.L5
 148:Src/main.c    ****   {
 149:Src/main.c    ****     _Error_Handler(__FILE__, __LINE__);
 154              		.loc 1 149 0
 155 0026 9521     		movs	r1, #149
 156 0028 1748     		ldr	r0, .L7
 157 002a FFF7FEFF 		bl	_Error_Handler
 158              	.L5:
 150:Src/main.c    ****   }
 151:Src/main.c    **** 
 152:Src/main.c    ****     /**Initializes the CPU, AHB and APB busses clocks 
 153:Src/main.c    ****     */
 154:Src/main.c    ****   RCC_ClkInitStruct.ClockType = RCC_CLOCKTYPE_HCLK|RCC_CLOCKTYPE_SYSCLK
 159              		.loc 1 154 0
 160 002e 0F23     		movs	r3, #15
 161 0030 7B60     		str	r3, [r7, #4]
 155:Src/main.c    ****                               |RCC_CLOCKTYPE_PCLK1|RCC_CLOCKTYPE_PCLK2;
 156:Src/main.c    ****   RCC_ClkInitStruct.SYSCLKSource = RCC_SYSCLKSOURCE_HSI;
 162              		.loc 1 156 0
 163 0032 0023     		movs	r3, #0
 164 0034 BB60     		str	r3, [r7, #8]
 157:Src/main.c    ****   RCC_ClkInitStruct.AHBCLKDivider = RCC_SYSCLK_DIV1;
 165              		.loc 1 157 0
 166 0036 0023     		movs	r3, #0
 167 0038 FB60     		str	r3, [r7, #12]
 158:Src/main.c    ****   RCC_ClkInitStruct.APB1CLKDivider = RCC_HCLK_DIV1;
 168              		.loc 1 158 0
 169 003a 0023     		movs	r3, #0
 170 003c 3B61     		str	r3, [r7, #16]
 159:Src/main.c    ****   RCC_ClkInitStruct.APB2CLKDivider = RCC_HCLK_DIV1;
 171              		.loc 1 159 0
 172 003e 0023     		movs	r3, #0
 173 0040 7B61     		str	r3, [r7, #20]
 160:Src/main.c    **** 
 161:Src/main.c    ****   if (HAL_RCC_ClockConfig(&RCC_ClkInitStruct, FLASH_LATENCY_0) != HAL_OK)
 174              		.loc 1 161 0
 175 0042 3B1D     		adds	r3, r7, #4
 176 0044 0021     		movs	r1, #0
 177 0046 1846     		mov	r0, r3
 178 0048 FFF7FEFF 		bl	HAL_RCC_ClockConfig
 179 004c 0346     		mov	r3, r0
 180 004e 002B     		cmp	r3, #0
 181 0050 03D0     		beq	.L6
 162:Src/main.c    ****   {
 163:Src/main.c    ****     _Error_Handler(__FILE__, __LINE__);
 182              		.loc 1 163 0
 183 0052 A321     		movs	r1, #163
 184 0054 0C48     		ldr	r0, .L7
ARM GAS  C:\Users\MATEUS~1\AppData\Local\Temp\ccagvv5I.s 			page 7


 185 0056 FFF7FEFF 		bl	_Error_Handler
 186              	.L6:
 164:Src/main.c    ****   }
 165:Src/main.c    **** 
 166:Src/main.c    ****     /**Configure the Systick interrupt time 
 167:Src/main.c    ****     */
 168:Src/main.c    ****   HAL_SYSTICK_Config(HAL_RCC_GetHCLKFreq()/1000);
 187              		.loc 1 168 0
 188 005a FFF7FEFF 		bl	HAL_RCC_GetHCLKFreq
 189 005e 0246     		mov	r2, r0
 190 0060 0A4B     		ldr	r3, .L7+4
 191 0062 A3FB0223 		umull	r2, r3, r3, r2
 192 0066 9B09     		lsrs	r3, r3, #6
 193 0068 1846     		mov	r0, r3
 194 006a FFF7FEFF 		bl	HAL_SYSTICK_Config
 169:Src/main.c    **** 
 170:Src/main.c    ****     /**Configure the Systick 
 171:Src/main.c    ****     */
 172:Src/main.c    ****   HAL_SYSTICK_CLKSourceConfig(SYSTICK_CLKSOURCE_HCLK);
 195              		.loc 1 172 0
 196 006e 0420     		movs	r0, #4
 197 0070 FFF7FEFF 		bl	HAL_SYSTICK_CLKSourceConfig
 173:Src/main.c    **** 
 174:Src/main.c    ****   /* SysTick_IRQn interrupt configuration */
 175:Src/main.c    ****   HAL_NVIC_SetPriority(SysTick_IRQn, 0, 0);
 198              		.loc 1 175 0
 199 0074 0022     		movs	r2, #0
 200 0076 0021     		movs	r1, #0
 201 0078 4FF0FF30 		mov	r0, #-1
 202 007c FFF7FEFF 		bl	HAL_NVIC_SetPriority
 176:Src/main.c    **** }
 203              		.loc 1 176 0
 204 0080 00BF     		nop
 205 0082 4037     		adds	r7, r7, #64
 206              	.LCFI11:
 207              		.cfi_def_cfa_offset 8
 208 0084 BD46     		mov	sp, r7
 209              	.LCFI12:
 210              		.cfi_def_cfa_register 13
 211              		@ sp needed
 212 0086 80BD     		pop	{r7, pc}
 213              	.L8:
 214              		.align	2
 215              	.L7:
 216 0088 00000000 		.word	.LC0
 217 008c D34D6210 		.word	274877907
 218              		.cfi_endproc
 219              	.LFE66:
 221              		.section	.text._Error_Handler,"ax",%progbits
 222              		.align	2
 223              		.global	_Error_Handler
 224              		.thumb
 225              		.thumb_func
 227              	_Error_Handler:
 228              	.LFB67:
 177:Src/main.c    **** 
 178:Src/main.c    **** /* USER CODE BEGIN 4 */
ARM GAS  C:\Users\MATEUS~1\AppData\Local\Temp\ccagvv5I.s 			page 8


 179:Src/main.c    **** 
 180:Src/main.c    **** /* USER CODE END 4 */
 181:Src/main.c    **** 
 182:Src/main.c    **** /**
 183:Src/main.c    ****   * @brief  This function is executed in case of error occurrence.
 184:Src/main.c    ****   * @param  file: The file name as string.
 185:Src/main.c    ****   * @param  line: The line in file as a number.
 186:Src/main.c    ****   * @retval None
 187:Src/main.c    ****   */
 188:Src/main.c    **** void _Error_Handler(char *file, int line)
 189:Src/main.c    **** {
 229              		.loc 1 189 0
 230              		.cfi_startproc
 231              		@ args = 0, pretend = 0, frame = 8
 232              		@ frame_needed = 1, uses_anonymous_args = 0
 233              		@ link register save eliminated.
 234 0000 80B4     		push	{r7}
 235              	.LCFI13:
 236              		.cfi_def_cfa_offset 4
 237              		.cfi_offset 7, -4
 238 0002 83B0     		sub	sp, sp, #12
 239              	.LCFI14:
 240              		.cfi_def_cfa_offset 16
 241 0004 00AF     		add	r7, sp, #0
 242              	.LCFI15:
 243              		.cfi_def_cfa_register 7
 244 0006 7860     		str	r0, [r7, #4]
 245 0008 3960     		str	r1, [r7]
 246              	.L10:
 190:Src/main.c    ****   /* USER CODE BEGIN Error_Handler_Debug */
 191:Src/main.c    ****   /* User can add his own implementation to report the HAL error return state */
 192:Src/main.c    ****   while(1)
 193:Src/main.c    ****   {
 194:Src/main.c    ****   }
 247              		.loc 1 194 0 discriminator 1
 248 000a FEE7     		b	.L10
 249              		.cfi_endproc
 250              	.LFE67:
 252              		.text
 253              	.Letext0:
 254              		.file 2 "c:\\program files (x86)\\gnu tools arm embedded\\5.4 2016q3\\arm-none-eabi\\include\\mach
 255              		.file 3 "c:\\program files (x86)\\gnu tools arm embedded\\5.4 2016q3\\arm-none-eabi\\include\\sys\
 256              		.file 4 "Drivers/CMSIS/Device/ST/STM32F1xx/Include/stm32f103xb.h"
 257              		.file 5 "Drivers/STM32F1xx_HAL_Driver/Inc/stm32f1xx_hal_def.h"
 258              		.file 6 "Drivers/STM32F1xx_HAL_Driver/Inc/stm32f1xx_hal_rcc.h"
 259              		.file 7 "Drivers/STM32F1xx_HAL_Driver/Inc/stm32f1xx_hal_rcc_ex.h"
 260              		.file 8 "Inc/encoder.h"
 261              		.file 9 "Drivers/CMSIS/Include/core_cm3.h"
ARM GAS  C:\Users\MATEUS~1\AppData\Local\Temp\ccagvv5I.s 			page 9

