ARM GAS  C:\Users\MATEUS~1\AppData\Local\Temp\ccCof9fP.s 			page 1


   1              		.syntax unified
   2              		.cpu cortex-m3
   3              		.fpu softvfp
   4              		.eabi_attribute 20, 1
   5              		.eabi_attribute 21, 1
   6              		.eabi_attribute 23, 3
   7              		.eabi_attribute 24, 1
   8              		.eabi_attribute 25, 1
   9              		.eabi_attribute 26, 1
  10              		.eabi_attribute 30, 6
  11              		.eabi_attribute 34, 1
  12              		.eabi_attribute 18, 4
  13              		.thumb
  14              		.syntax unified
  15              		.file	"stm32f1xx_hal_msp.c"
  16              		.text
  17              	.Ltext0:
  18              		.cfi_sections	.debug_frame
  19              		.section	.text.HAL_MspInit,"ax",%progbits
  20              		.align	2
  21              		.global	HAL_MspInit
  22              		.thumb
  23              		.thumb_func
  25              	HAL_MspInit:
  26              	.LFB64:
  27              		.file 1 "Src/stm32f1xx_hal_msp.c"
   1:Src/stm32f1xx_hal_msp.c **** /**
   2:Src/stm32f1xx_hal_msp.c ****   ******************************************************************************
   3:Src/stm32f1xx_hal_msp.c ****   * File Name          : stm32f1xx_hal_msp.c
   4:Src/stm32f1xx_hal_msp.c ****   * Description        : This file provides code for the MSP Initialization 
   5:Src/stm32f1xx_hal_msp.c ****   *                      and de-Initialization codes.
   6:Src/stm32f1xx_hal_msp.c ****   ******************************************************************************
   7:Src/stm32f1xx_hal_msp.c ****   ** This notice applies to any and all portions of this file
   8:Src/stm32f1xx_hal_msp.c ****   * that are not between comment pairs USER CODE BEGIN and
   9:Src/stm32f1xx_hal_msp.c ****   * USER CODE END. Other portions of this file, whether 
  10:Src/stm32f1xx_hal_msp.c ****   * inserted by the user or by software development tools
  11:Src/stm32f1xx_hal_msp.c ****   * are owned by their respective copyright owners.
  12:Src/stm32f1xx_hal_msp.c ****   *
  13:Src/stm32f1xx_hal_msp.c ****   * COPYRIGHT(c) 2018 STMicroelectronics
  14:Src/stm32f1xx_hal_msp.c ****   *
  15:Src/stm32f1xx_hal_msp.c ****   * Redistribution and use in source and binary forms, with or without modification,
  16:Src/stm32f1xx_hal_msp.c ****   * are permitted provided that the following conditions are met:
  17:Src/stm32f1xx_hal_msp.c ****   *   1. Redistributions of source code must retain the above copyright notice,
  18:Src/stm32f1xx_hal_msp.c ****   *      this list of conditions and the following disclaimer.
  19:Src/stm32f1xx_hal_msp.c ****   *   2. Redistributions in binary form must reproduce the above copyright notice,
  20:Src/stm32f1xx_hal_msp.c ****   *      this list of conditions and the following disclaimer in the documentation
  21:Src/stm32f1xx_hal_msp.c ****   *      and/or other materials provided with the distribution.
  22:Src/stm32f1xx_hal_msp.c ****   *   3. Neither the name of STMicroelectronics nor the names of its contributors
  23:Src/stm32f1xx_hal_msp.c ****   *      may be used to endorse or promote products derived from this software
  24:Src/stm32f1xx_hal_msp.c ****   *      without specific prior written permission.
  25:Src/stm32f1xx_hal_msp.c ****   *
  26:Src/stm32f1xx_hal_msp.c ****   * THIS SOFTWARE IS PROVIDED BY THE COPYRIGHT HOLDERS AND CONTRIBUTORS "AS IS"
  27:Src/stm32f1xx_hal_msp.c ****   * AND ANY EXPRESS OR IMPLIED WARRANTIES, INCLUDING, BUT NOT LIMITED TO, THE
  28:Src/stm32f1xx_hal_msp.c ****   * IMPLIED WARRANTIES OF MERCHANTABILITY AND FITNESS FOR A PARTICULAR PURPOSE ARE
  29:Src/stm32f1xx_hal_msp.c ****   * DISCLAIMED. IN NO EVENT SHALL THE COPYRIGHT HOLDER OR CONTRIBUTORS BE LIABLE
  30:Src/stm32f1xx_hal_msp.c ****   * FOR ANY DIRECT, INDIRECT, INCIDENTAL, SPECIAL, EXEMPLARY, OR CONSEQUENTIAL
  31:Src/stm32f1xx_hal_msp.c ****   * DAMAGES (INCLUDING, BUT NOT LIMITED TO, PROCUREMENT OF SUBSTITUTE GOODS OR
ARM GAS  C:\Users\MATEUS~1\AppData\Local\Temp\ccCof9fP.s 			page 2


  32:Src/stm32f1xx_hal_msp.c ****   * SERVICES; LOSS OF USE, DATA, OR PROFITS; OR BUSINESS INTERRUPTION) HOWEVER
  33:Src/stm32f1xx_hal_msp.c ****   * CAUSED AND ON ANY THEORY OF LIABILITY, WHETHER IN CONTRACT, STRICT LIABILITY,
  34:Src/stm32f1xx_hal_msp.c ****   * OR TORT (INCLUDING NEGLIGENCE OR OTHERWISE) ARISING IN ANY WAY OUT OF THE USE
  35:Src/stm32f1xx_hal_msp.c ****   * OF THIS SOFTWARE, EVEN IF ADVISED OF THE POSSIBILITY OF SUCH DAMAGE.
  36:Src/stm32f1xx_hal_msp.c ****   *
  37:Src/stm32f1xx_hal_msp.c ****   ******************************************************************************
  38:Src/stm32f1xx_hal_msp.c ****   */
  39:Src/stm32f1xx_hal_msp.c **** /* Includes ------------------------------------------------------------------*/
  40:Src/stm32f1xx_hal_msp.c **** #include "stm32f1xx_hal.h"
  41:Src/stm32f1xx_hal_msp.c **** extern void _Error_Handler(char *, int);
  42:Src/stm32f1xx_hal_msp.c **** /* USER CODE BEGIN 0 */
  43:Src/stm32f1xx_hal_msp.c **** 
  44:Src/stm32f1xx_hal_msp.c **** /* USER CODE END 0 */
  45:Src/stm32f1xx_hal_msp.c **** /**
  46:Src/stm32f1xx_hal_msp.c ****   * Initializes the Global MSP.
  47:Src/stm32f1xx_hal_msp.c ****   */
  48:Src/stm32f1xx_hal_msp.c **** void HAL_MspInit(void)
  49:Src/stm32f1xx_hal_msp.c **** {
  28              		.loc 1 49 0
  29              		.cfi_startproc
  30              		@ args = 0, pretend = 0, frame = 16
  31              		@ frame_needed = 1, uses_anonymous_args = 0
  32 0000 80B5     		push	{r7, lr}
  33              	.LCFI0:
  34              		.cfi_def_cfa_offset 8
  35              		.cfi_offset 7, -8
  36              		.cfi_offset 14, -4
  37 0002 84B0     		sub	sp, sp, #16
  38              	.LCFI1:
  39              		.cfi_def_cfa_offset 24
  40 0004 00AF     		add	r7, sp, #0
  41              	.LCFI2:
  42              		.cfi_def_cfa_register 7
  43              	.LBB2:
  50:Src/stm32f1xx_hal_msp.c ****   /* USER CODE BEGIN MspInit 0 */
  51:Src/stm32f1xx_hal_msp.c **** 
  52:Src/stm32f1xx_hal_msp.c ****   /* USER CODE END MspInit 0 */
  53:Src/stm32f1xx_hal_msp.c **** 
  54:Src/stm32f1xx_hal_msp.c ****   __HAL_RCC_AFIO_CLK_ENABLE();
  44              		.loc 1 54 0
  45 0006 2B4A     		ldr	r2, .L2
  46 0008 2A4B     		ldr	r3, .L2
  47 000a 9B69     		ldr	r3, [r3, #24]
  48 000c 43F00103 		orr	r3, r3, #1
  49 0010 9361     		str	r3, [r2, #24]
  50 0012 284B     		ldr	r3, .L2
  51 0014 9B69     		ldr	r3, [r3, #24]
  52 0016 03F00103 		and	r3, r3, #1
  53 001a BB60     		str	r3, [r7, #8]
  54 001c BB68     		ldr	r3, [r7, #8]
  55              	.LBE2:
  56              	.LBB3:
  55:Src/stm32f1xx_hal_msp.c ****   __HAL_RCC_PWR_CLK_ENABLE();
  57              		.loc 1 55 0
  58 001e 254A     		ldr	r2, .L2
  59 0020 244B     		ldr	r3, .L2
  60 0022 DB69     		ldr	r3, [r3, #28]
ARM GAS  C:\Users\MATEUS~1\AppData\Local\Temp\ccCof9fP.s 			page 3


  61 0024 43F08053 		orr	r3, r3, #268435456
  62 0028 D361     		str	r3, [r2, #28]
  63 002a 224B     		ldr	r3, .L2
  64 002c DB69     		ldr	r3, [r3, #28]
  65 002e 03F08053 		and	r3, r3, #268435456
  66 0032 7B60     		str	r3, [r7, #4]
  67 0034 7B68     		ldr	r3, [r7, #4]
  68              	.LBE3:
  56:Src/stm32f1xx_hal_msp.c **** 
  57:Src/stm32f1xx_hal_msp.c ****   HAL_NVIC_SetPriorityGrouping(NVIC_PRIORITYGROUP_4);
  69              		.loc 1 57 0
  70 0036 0320     		movs	r0, #3
  71 0038 FFF7FEFF 		bl	HAL_NVIC_SetPriorityGrouping
  58:Src/stm32f1xx_hal_msp.c **** 
  59:Src/stm32f1xx_hal_msp.c ****   /* System interrupt init*/
  60:Src/stm32f1xx_hal_msp.c ****   /* MemoryManagement_IRQn interrupt configuration */
  61:Src/stm32f1xx_hal_msp.c ****   HAL_NVIC_SetPriority(MemoryManagement_IRQn, 0, 0);
  72              		.loc 1 61 0
  73 003c 0022     		movs	r2, #0
  74 003e 0021     		movs	r1, #0
  75 0040 6FF00B00 		mvn	r0, #11
  76 0044 FFF7FEFF 		bl	HAL_NVIC_SetPriority
  62:Src/stm32f1xx_hal_msp.c ****   /* BusFault_IRQn interrupt configuration */
  63:Src/stm32f1xx_hal_msp.c ****   HAL_NVIC_SetPriority(BusFault_IRQn, 0, 0);
  77              		.loc 1 63 0
  78 0048 0022     		movs	r2, #0
  79 004a 0021     		movs	r1, #0
  80 004c 6FF00A00 		mvn	r0, #10
  81 0050 FFF7FEFF 		bl	HAL_NVIC_SetPriority
  64:Src/stm32f1xx_hal_msp.c ****   /* UsageFault_IRQn interrupt configuration */
  65:Src/stm32f1xx_hal_msp.c ****   HAL_NVIC_SetPriority(UsageFault_IRQn, 0, 0);
  82              		.loc 1 65 0
  83 0054 0022     		movs	r2, #0
  84 0056 0021     		movs	r1, #0
  85 0058 6FF00900 		mvn	r0, #9
  86 005c FFF7FEFF 		bl	HAL_NVIC_SetPriority
  66:Src/stm32f1xx_hal_msp.c ****   /* SVCall_IRQn interrupt configuration */
  67:Src/stm32f1xx_hal_msp.c ****   HAL_NVIC_SetPriority(SVCall_IRQn, 0, 0);
  87              		.loc 1 67 0
  88 0060 0022     		movs	r2, #0
  89 0062 0021     		movs	r1, #0
  90 0064 6FF00400 		mvn	r0, #4
  91 0068 FFF7FEFF 		bl	HAL_NVIC_SetPriority
  68:Src/stm32f1xx_hal_msp.c ****   /* DebugMonitor_IRQn interrupt configuration */
  69:Src/stm32f1xx_hal_msp.c ****   HAL_NVIC_SetPriority(DebugMonitor_IRQn, 0, 0);
  92              		.loc 1 69 0
  93 006c 0022     		movs	r2, #0
  94 006e 0021     		movs	r1, #0
  95 0070 6FF00300 		mvn	r0, #3
  96 0074 FFF7FEFF 		bl	HAL_NVIC_SetPriority
  70:Src/stm32f1xx_hal_msp.c ****   /* PendSV_IRQn interrupt configuration */
  71:Src/stm32f1xx_hal_msp.c ****   HAL_NVIC_SetPriority(PendSV_IRQn, 0, 0);
  97              		.loc 1 71 0
  98 0078 0022     		movs	r2, #0
  99 007a 0021     		movs	r1, #0
 100 007c 6FF00100 		mvn	r0, #1
 101 0080 FFF7FEFF 		bl	HAL_NVIC_SetPriority
ARM GAS  C:\Users\MATEUS~1\AppData\Local\Temp\ccCof9fP.s 			page 4


  72:Src/stm32f1xx_hal_msp.c ****   /* SysTick_IRQn interrupt configuration */
  73:Src/stm32f1xx_hal_msp.c ****   HAL_NVIC_SetPriority(SysTick_IRQn, 0, 0);
 102              		.loc 1 73 0
 103 0084 0022     		movs	r2, #0
 104 0086 0021     		movs	r1, #0
 105 0088 4FF0FF30 		mov	r0, #-1
 106 008c FFF7FEFF 		bl	HAL_NVIC_SetPriority
 107              	.LBB4:
  74:Src/stm32f1xx_hal_msp.c **** 
  75:Src/stm32f1xx_hal_msp.c ****     /**NONJTRST: Full SWJ (JTAG-DP + SW-DP) but without NJTRST 
  76:Src/stm32f1xx_hal_msp.c ****     */
  77:Src/stm32f1xx_hal_msp.c ****   __HAL_AFIO_REMAP_SWJ_NONJTRST();
 108              		.loc 1 77 0
 109 0090 094B     		ldr	r3, .L2+4
 110 0092 5B68     		ldr	r3, [r3, #4]
 111 0094 FB60     		str	r3, [r7, #12]
 112 0096 FB68     		ldr	r3, [r7, #12]
 113 0098 23F0E063 		bic	r3, r3, #117440512
 114 009c FB60     		str	r3, [r7, #12]
 115 009e FB68     		ldr	r3, [r7, #12]
 116 00a0 43F08073 		orr	r3, r3, #16777216
 117 00a4 FB60     		str	r3, [r7, #12]
 118 00a6 044A     		ldr	r2, .L2+4
 119 00a8 FB68     		ldr	r3, [r7, #12]
 120 00aa 5360     		str	r3, [r2, #4]
 121              	.LBE4:
  78:Src/stm32f1xx_hal_msp.c **** 
  79:Src/stm32f1xx_hal_msp.c ****   /* USER CODE BEGIN MspInit 1 */
  80:Src/stm32f1xx_hal_msp.c **** 
  81:Src/stm32f1xx_hal_msp.c ****   /* USER CODE END MspInit 1 */
  82:Src/stm32f1xx_hal_msp.c **** }
 122              		.loc 1 82 0
 123 00ac 00BF     		nop
 124 00ae 1037     		adds	r7, r7, #16
 125              	.LCFI3:
 126              		.cfi_def_cfa_offset 8
 127 00b0 BD46     		mov	sp, r7
 128              	.LCFI4:
 129              		.cfi_def_cfa_register 13
 130              		@ sp needed
 131 00b2 80BD     		pop	{r7, pc}
 132              	.L3:
 133              		.align	2
 134              	.L2:
 135 00b4 00100240 		.word	1073876992
 136 00b8 00000140 		.word	1073807360
 137              		.cfi_endproc
 138              	.LFE64:
 140              		.text
 141              	.Letext0:
 142              		.file 2 "c:\\program files (x86)\\gnu tools arm embedded\\5.4 2016q3\\arm-none-eabi\\include\\mach
 143              		.file 3 "c:\\program files (x86)\\gnu tools arm embedded\\5.4 2016q3\\arm-none-eabi\\include\\sys\
 144              		.file 4 "Drivers/CMSIS/Device/ST/STM32F1xx/Include/stm32f103xb.h"
 145              		.file 5 "Drivers/CMSIS/Include/core_cm3.h"
ARM GAS  C:\Users\MATEUS~1\AppData\Local\Temp\ccCof9fP.s 			page 5

